target datalayout = "e-m:e-p270:32:32-p271:32:32-p272:64:64-i64:64-i128:128-f80:128-n8:16:32:64-S128"
target triple = "x86_64-pc-linux-gnu"

%class.OopHandle = type { ptr }
%class.ZServiceabilityMemoryPool = type { %class.CollectedMemoryPool.base, i8, [6 x i8] }
%class.CollectedMemoryPool.base = type { %class.MemoryPool.base }
%class.MemoryPool.base = type <{ ptr, ptr, i32, [4 x i8], i64, i64, i8, [7 x i8], [5 x ptr], i32, [4 x i8], %class.MemoryUsage, %class.MemoryUsage, ptr, ptr, ptr, ptr, %class.OopHandle, i8 }>
%class.MemoryUsage = type { i64, i64, i64, i64 }
%class.ZServiceability = type { i64, i64, i64, %class.ZServiceabilityMemoryPool, %class.ZServiceabilityMemoryPool, %class.ZServiceabilityMemoryManager, %class.ZServiceabilityMemoryManager, %class.ZServiceabilityMemoryManager, %class.ZServiceabilityMemoryManager, ptr }
%class.ZServiceabilityMemoryManager = type { %class.GCMemoryManager.base, i8 }
%class.GCMemoryManager.base = type <{ %class.MemoryManager.base, [7 x i8], i64, %class.elapsedTimer, ptr, ptr, ptr, i32, i8, [10 x i8] }>
%class.MemoryManager.base = type <{ ptr, [10 x ptr], i32, [4 x i8], ptr, %class.OopHandle, i8 }>
%class.elapsedTimer = type <{ i64, i64, i8, [7 x i8] }>

@.str.8 = private unnamed_addr constant [21 x i8] c"ZGC Young Generation\00", align 1
@.str.9 = private unnamed_addr constant [19 x i8] c"ZGC Old Generation\00", align 1
@.str.10 = private unnamed_addr constant [17 x i8] c"ZGC Minor Cycles\00", align 1
@.str.11 = private unnamed_addr constant [17 x i8] c"ZGC Major Cycles\00", align 1
@.str.12 = private unnamed_addr constant [17 x i8] c"ZGC Minor Pauses\00", align 1
@.str.13 = private unnamed_addr constant [17 x i8] c"ZGC Major Pauses\00", align 1
@_ZN25ZServiceabilityMemoryPoolC1EPKc13ZGenerationIdmm = hidden unnamed_addr alias void (ptr, ptr, i8, i64, i64), ptr @_ZN25ZServiceabilityMemoryPoolC2EPKc13ZGenerationIdmm
@_ZN28ZServiceabilityMemoryManagerC1EPKcP10MemoryPoolS3_ = hidden unnamed_addr alias void (ptr, ptr, ptr, ptr), ptr @_ZN28ZServiceabilityMemoryManagerC2EPKcP10MemoryPoolS3_

; Function Attrs: mustprogress nounwind uwtable
define hidden void @_ZN15ZServiceabilityC2Emmm(ptr noundef nonnull align 8 dereferenceable(1216) %0, i64 noundef %1, i64 noundef %2, i64 noundef %3) unnamed_addr #1 align 2 {
  %5 = alloca ptr, align 8
  %6 = alloca i64, align 8
  %7 = alloca i64, align 8
  %8 = alloca i64, align 8
  store ptr %0, ptr %5, align 8
  store i64 %1, ptr %6, align 8
  store i64 %2, ptr %7, align 8
  store i64 %3, ptr %8, align 8
  %9 = load ptr, ptr %5, align 8
  %10 = getelementptr inbounds %class.ZServiceability, ptr %9, i32 0, i32 0
  %11 = load i64, ptr %6, align 8
  store i64 %11, ptr %10, align 8
  %12 = getelementptr inbounds %class.ZServiceability, ptr %9, i32 0, i32 1
  %13 = load i64, ptr %7, align 8
  store i64 %13, ptr %12, align 8
  %14 = getelementptr inbounds %class.ZServiceability, ptr %9, i32 0, i32 2
  %15 = load i64, ptr %8, align 8
  store i64 %15, ptr %14, align 8
  %16 = getelementptr inbounds %class.ZServiceability, ptr %9, i32 0, i32 3
  %17 = getelementptr inbounds %class.ZServiceability, ptr %9, i32 0, i32 1
  %18 = load i64, ptr %17, align 8
  %19 = getelementptr inbounds %class.ZServiceability, ptr %9, i32 0, i32 2
  %20 = load i64, ptr %19, align 8
  call void @_ZN25ZServiceabilityMemoryPoolC1EPKc13ZGenerationIdmm(ptr noundef nonnull align 8 dereferenceable(202) %16, ptr noundef @.str.8, i8 noundef zeroext 0, i64 noundef %18, i64 noundef %20)
  %21 = getelementptr inbounds %class.ZServiceability, ptr %9, i32 0, i32 4
  %22 = getelementptr inbounds %class.ZServiceability, ptr %9, i32 0, i32 2
  %23 = load i64, ptr %22, align 8
  call void @_ZN25ZServiceabilityMemoryPoolC1EPKc13ZGenerationIdmm(ptr noundef nonnull align 8 dereferenceable(202) %21, ptr noundef @.str.9, i8 noundef zeroext 1, i64 noundef 0, i64 noundef %23)
  %24 = getelementptr inbounds %class.ZServiceability, ptr %9, i32 0, i32 5
  %25 = getelementptr inbounds %class.ZServiceability, ptr %9, i32 0, i32 3
  %26 = getelementptr inbounds %class.ZServiceability, ptr %9, i32 0, i32 4
  call void @_ZN28ZServiceabilityMemoryManagerC1EPKcP10MemoryPoolS3_(ptr noundef nonnull align 8 dereferenceable(191) %24, ptr noundef @.str.10, ptr noundef %25, ptr noundef %26)
  %27 = getelementptr inbounds %class.ZServiceability, ptr %9, i32 0, i32 6
  %28 = getelementptr inbounds %class.ZServiceability, ptr %9, i32 0, i32 3
  %29 = getelementptr inbounds %class.ZServiceability, ptr %9, i32 0, i32 4
  call void @_ZN28ZServiceabilityMemoryManagerC1EPKcP10MemoryPoolS3_(ptr noundef nonnull align 8 dereferenceable(191) %27, ptr noundef @.str.11, ptr noundef %28, ptr noundef %29)
  %30 = getelementptr inbounds %class.ZServiceability, ptr %9, i32 0, i32 7
  %31 = getelementptr inbounds %class.ZServiceability, ptr %9, i32 0, i32 3
  %32 = getelementptr inbounds %class.ZServiceability, ptr %9, i32 0, i32 4
  call void @_ZN28ZServiceabilityMemoryManagerC1EPKcP10MemoryPoolS3_(ptr noundef nonnull align 8 dereferenceable(191) %30, ptr noundef @.str.12, ptr noundef %31, ptr noundef %32)
  %33 = getelementptr inbounds %class.ZServiceability, ptr %9, i32 0, i32 8
  %34 = getelementptr inbounds %class.ZServiceability, ptr %9, i32 0, i32 3
  %35 = getelementptr inbounds %class.ZServiceability, ptr %9, i32 0, i32 4
  call void @_ZN28ZServiceabilityMemoryManagerC1EPKcP10MemoryPoolS3_(ptr noundef nonnull align 8 dereferenceable(191) %33, ptr noundef @.str.13, ptr noundef %34, ptr noundef %35)
  %36 = getelementptr inbounds %class.ZServiceability, ptr %9, i32 0, i32 9
  store ptr null, ptr %36, align 8
  ret void
}