; Function Attrs: mustprogress nounwind uwtable
define hidden void @_ZN15ZServiceabilityC2Emmm(ptr noundef nonnull align 8 dereferenceable(1216) %0, i64 noundef %1, i64 noundef %2, i64 noundef %3) unnamed_addr #0 align 2 {
  store i64 %1, ptr %0, align 8
  %5 = getelementptr inbounds i8, ptr %0, i64 8
  store i64 %2, ptr %5, align 8
  %6 = getelementptr inbounds i8, ptr %0, i64 16
  store i64 %3, ptr %6, align 8
  %7 = getelementptr inbounds i8, ptr %0, i64 24
  tail call void @_ZN10MemoryPoolC2EPKcNS_8PoolTypeEmmbb(ptr noundef nonnull align 8 dereferenceable(201) %7, ptr noundef nonnull @.str.8, i32 noundef 1, i64 noundef %2, i64 noundef %3, i1 noundef zeroext false, i1 noundef zeroext true) #9
  store ptr getelementptr inbounds inrange(-16, 64) (i8, ptr @_ZTV25ZServiceabilityMemoryPool, i64 16), ptr %7, align 8
  %8 = getelementptr inbounds i8, ptr %0, i64 225
  store i8 0, ptr %8, align 1
  %9 = getelementptr inbounds i8, ptr %0, i64 232
  %10 = load i64, ptr %6, align 8
  tail call void @_ZN10MemoryPoolC2EPKcNS_8PoolTypeEmmbb(ptr noundef nonnull align 8 dereferenceable(201) %9, ptr noundef nonnull @.str.9, i32 noundef 1, i64 noundef 0, i64 noundef %10, i1 noundef zeroext true, i1 noundef zeroext true) #9
  store ptr getelementptr inbounds inrange(-16, 64) (i8, ptr @_ZTV25ZServiceabilityMemoryPool, i64 16), ptr %9, align 8
  %11 = getelementptr inbounds i8, ptr %0, i64 433
  store i8 1, ptr %11, align 1
  %12 = getelementptr inbounds i8, ptr %0, i64 440
  tail call void @_ZN15GCMemoryManagerC2EPKc(ptr noundef nonnull align 8 dereferenceable(191) %12, ptr noundef nonnull @.str.10) #9
  store ptr getelementptr inbounds inrange(-16, 16) (i8, ptr @_ZTV28ZServiceabilityMemoryManager, i64 16), ptr %12, align 8
  tail call void @_ZN15GCMemoryManager8add_poolEP10MemoryPool(ptr noundef nonnull align 8 dereferenceable(191) %12, ptr noundef nonnull %7) #9
  tail call void @_ZN15GCMemoryManager8add_poolEP10MemoryPool(ptr noundef nonnull align 8 dereferenceable(191) %12, ptr noundef nonnull %9) #9
  %13 = getelementptr inbounds i8, ptr %0, i64 632
  tail call void @_ZN15GCMemoryManagerC2EPKc(ptr noundef nonnull align 8 dereferenceable(191) %13, ptr noundef nonnull @.str.11) #9
  store ptr getelementptr inbounds inrange(-16, 16) (i8, ptr @_ZTV28ZServiceabilityMemoryManager, i64 16), ptr %13, align 8
  tail call void @_ZN15GCMemoryManager8add_poolEP10MemoryPool(ptr noundef nonnull align 8 dereferenceable(191) %13, ptr noundef nonnull %7) #9
  tail call void @_ZN15GCMemoryManager8add_poolEP10MemoryPool(ptr noundef nonnull align 8 dereferenceable(191) %13, ptr noundef nonnull %9) #9
  %14 = getelementptr inbounds i8, ptr %0, i64 824
  tail call void @_ZN15GCMemoryManagerC2EPKc(ptr noundef nonnull align 8 dereferenceable(191) %14, ptr noundef nonnull @.str.12) #9
  store ptr getelementptr inbounds inrange(-16, 16) (i8, ptr @_ZTV28ZServiceabilityMemoryManager, i64 16), ptr %14, align 8
  tail call void @_ZN15GCMemoryManager8add_poolEP10MemoryPool(ptr noundef nonnull align 8 dereferenceable(191) %14, ptr noundef nonnull %7) #9
  tail call void @_ZN15GCMemoryManager8add_poolEP10MemoryPool(ptr noundef nonnull align 8 dereferenceable(191) %14, ptr noundef nonnull %9) #9
  %15 = getelementptr inbounds i8, ptr %0, i64 1016
  tail call void @_ZN15GCMemoryManagerC2EPKc(ptr noundef nonnull align 8 dereferenceable(191) %15, ptr noundef nonnull @.str.13) #9
  store ptr getelementptr inbounds inrange(-16, 16) (i8, ptr @_ZTV28ZServiceabilityMemoryManager, i64 16), ptr %15, align 8
  tail call void @_ZN15GCMemoryManager8add_poolEP10MemoryPool(ptr noundef nonnull align 8 dereferenceable(191) %15, ptr noundef nonnull %7) #9
  tail call void @_ZN15GCMemoryManager8add_poolEP10MemoryPool(ptr noundef nonnull align 8 dereferenceable(191) %15, ptr noundef nonnull %9) #9
  %16 = getelementptr inbounds i8, ptr %0, i64 1208
  store ptr null, ptr %16, align 8
  ret void
}